target datalayout = "e-m:e-p270:32:32-p271:32:32-p272:64:64-i64:64-i128:128-f80:128-n8:16:32:64-S128"
target triple = "x86_64-pc-linux-gnu"

%"class.std::__cxx11::basic_string" = type { %"struct.std::__cxx11::basic_string<char>::_Alloc_hider", i64, %union.anon }
%"struct.std::__cxx11::basic_string<char>::_Alloc_hider" = type { ptr }
%union.anon = type { i64, [8 x i8] }
%"struct.nix::Hash" = type <{ i64, [64 x i8], i8, [7 x i8] }>
%"class.std::basic_string_view" = type { i64, ptr }
%"class.nix::StorePath" = type { %"class.std::__cxx11::basic_string" }
%"struct.nix::DerivationOutput::CAFixed" = type { %"struct.nix::ContentAddress" }
%"struct.nix::ContentAddress" = type { %"struct.nix::ContentAddressMethod", [6 x i8], %"struct.nix::Hash" }
%"struct.nix::ContentAddressMethod" = type { %"class.std::variant.31" }
%"class.std::variant.31" = type { %"struct.std::__detail::__variant::_Variant_base.32" }
%"struct.std::__detail::__variant::_Variant_base.32" = type { %"struct.std::__detail::__variant::_Move_assign_base.33" }
%"struct.std::__detail::__variant::_Move_assign_base.33" = type { %"struct.std::__detail::__variant::_Copy_assign_base.34" }
%"struct.std::__detail::__variant::_Copy_assign_base.34" = type { %"struct.std::__detail::__variant::_Move_ctor_base.35" }
%"struct.std::__detail::__variant::_Move_ctor_base.35" = type { %"struct.std::__detail::__variant::_Copy_ctor_base.36" }
%"struct.std::__detail::__variant::_Copy_ctor_base.36" = type { %"struct.std::__detail::__variant::_Variant_storage.37" }
%"struct.std::__detail::__variant::_Variant_storage.37" = type { %"union.std::__detail::__variant::_Variadic_union.38", i8 }
%"union.std::__detail::__variant::_Variadic_union.38" = type { %"struct.std::__detail::__variant::_Uninitialized.39" }
%"struct.std::__detail::__variant::_Uninitialized.39" = type { %"struct.nix::TextIngestionMethod" }
%"struct.nix::TextIngestionMethod" = type { i8 }
%"struct.nix::ContentAddressWithReferences" = type { %"class.std::variant.53" }
%"class.std::variant.53" = type { %"struct.std::__detail::__variant::_Variant_base.base.71", [7 x i8] }
%"struct.std::__detail::__variant::_Variant_base.base.71" = type { %"struct.std::__detail::__variant::_Move_assign_base.base.70" }
%"struct.std::__detail::__variant::_Move_assign_base.base.70" = type { %"struct.std::__detail::__variant::_Copy_assign_base.base.69" }
%"struct.std::__detail::__variant::_Copy_assign_base.base.69" = type { %"struct.std::__detail::__variant::_Move_ctor_base.base.68" }
%"struct.std::__detail::__variant::_Move_ctor_base.base.68" = type { %"struct.std::__detail::__variant::_Copy_ctor_base.base.67" }
%"struct.std::__detail::__variant::_Copy_ctor_base.base.67" = type { %"struct.std::__detail::__variant::_Variant_storage.base.66" }
%"struct.std::__detail::__variant::_Variant_storage.base.66" = type { %"union.std::__detail::__variant::_Variadic_union.60", i8 }
%"union.std::__detail::__variant::_Variadic_union.60" = type { %"union.std::__detail::__variant::_Variadic_union.63" }
%"union.std::__detail::__variant::_Variadic_union.63" = type { %"struct.std::__detail::__variant::_Uninitialized.64" }
%"struct.std::__detail::__variant::_Uninitialized.64" = type { %"struct.__gnu_cxx::__aligned_membuf.65" }
%"struct.__gnu_cxx::__aligned_membuf.65" = type { [144 x i8] }

; Function Attrs: mustprogress nounwind uwtable
define linkonce_odr noundef ptr @_ZNKSt7__cxx1112basic_stringIcSt11char_traitsIcESaIcEE7_M_dataEv(ptr noundef nonnull align 8 dereferenceable(32) %0) #2 comdat align 2 {
  %2 = alloca ptr, align 8
  store ptr %0, ptr %2, align 8
  %3 = load ptr, ptr %2, align 8
  %4 = getelementptr inbounds %"class.std::__cxx11::basic_string", ptr %3, i32 0, i32 0
  %5 = getelementptr inbounds %"struct.std::__cxx11::basic_string<char>::_Alloc_hider", ptr %4, i32 0, i32 0
  %6 = load ptr, ptr %5, align 8
  ret ptr %6
}

; Function Attrs: mustprogress nounwind uwtable
define linkonce_odr void @_ZNSt17basic_string_viewIcSt11char_traitsIcEEC2EPKcm(ptr noundef nonnull align 8 dereferenceable(16) %0, ptr noundef %1, i64 noundef %2) unnamed_addr #2 comdat align 2 {
  %4 = alloca ptr, align 8
  %5 = alloca ptr, align 8
  %6 = alloca i64, align 8
  store ptr %0, ptr %4, align 8
  store ptr %1, ptr %5, align 8
  store i64 %2, ptr %6, align 8
  %7 = load ptr, ptr %4, align 8
  %8 = getelementptr inbounds %"class.std::basic_string_view", ptr %7, i32 0, i32 0
  %9 = load i64, ptr %6, align 8
  store i64 %9, ptr %8, align 8
  %10 = getelementptr inbounds %"class.std::basic_string_view", ptr %7, i32 0, i32 1
  %11 = load ptr, ptr %5, align 8
  store ptr %11, ptr %10, align 8
  ret void
}

; Function Attrs: mustprogress nounwind uwtable
define linkonce_odr noundef i64 @_ZNKSt7__cxx1112basic_stringIcSt11char_traitsIcESaIcEE4sizeEv(ptr noundef nonnull align 8 dereferenceable(32) %0) #2 comdat align 2 {
  %2 = alloca ptr, align 8
  store ptr %0, ptr %2, align 8
  %3 = load ptr, ptr %2, align 8
  %4 = getelementptr inbounds %"class.std::__cxx11::basic_string", ptr %3, i32 0, i32 1
  %5 = load i64, ptr %4, align 8
  ret i64 %5
}

; Function Attrs: mustprogress nounwind uwtable
define linkonce_odr noundef ptr @_ZNKSt7__cxx1112basic_stringIcSt11char_traitsIcESaIcEE4dataEv(ptr noundef nonnull align 8 dereferenceable(32) %0) #2 comdat align 2 {
  %2 = alloca ptr, align 8
  store ptr %0, ptr %2, align 8
  %3 = load ptr, ptr %2, align 8
  %4 = call noundef ptr @_ZNKSt7__cxx1112basic_stringIcSt11char_traitsIcESaIcEE7_M_dataEv(ptr noundef nonnull align 8 dereferenceable(32) %3)
  ret ptr %4
}

; Function Attrs: mustprogress nounwind uwtable
define linkonce_odr { i64, ptr } @_ZNKSt7__cxx1112basic_stringIcSt11char_traitsIcESaIcEEcvSt17basic_string_viewIcS2_EEv(ptr noundef nonnull align 8 dereferenceable(32) %0) #2 comdat align 2 {
  %2 = alloca %"class.std::basic_string_view", align 8
  %3 = alloca ptr, align 8
  store ptr %0, ptr %3, align 8
  %4 = load ptr, ptr %3, align 8
  %5 = call noundef ptr @_ZNKSt7__cxx1112basic_stringIcSt11char_traitsIcESaIcEE4dataEv(ptr noundef nonnull align 8 dereferenceable(32) %4) #1
  %6 = call noundef i64 @_ZNKSt7__cxx1112basic_stringIcSt11char_traitsIcESaIcEE4sizeEv(ptr noundef nonnull align 8 dereferenceable(32) %4) #1
  call void @_ZNSt17basic_string_viewIcSt11char_traitsIcEEC2EPKcm(ptr noundef nonnull align 8 dereferenceable(16) %2, ptr noundef %5, i64 noundef %6) #1
  %7 = load { i64, ptr }, ptr %2, align 8
  ret { i64, ptr } %7
}

; Function Attrs: mustprogress uwtable
define void @_ZNK3nix16DerivationOutput7CAFixed4pathERKNS_14StoreDirConfigESt17basic_string_viewIcSt11char_traitsIcEES8_(ptr dead_on_unwind noalias writable sret(%"class.nix::StorePath") align 8 %0, ptr noundef nonnull align 8 dereferenceable(88) %1, ptr noundef nonnull align 8 dereferenceable(344) %2, i64 %3, ptr %4, ptr noundef byval(%"class.std::basic_string_view") align 8 %5) #5 align 2 personality ptr @__gxx_personality_v0 {
  %7 = alloca ptr, align 8
  %8 = alloca %"class.std::basic_string_view", align 8
  %9 = alloca ptr, align 8
  %10 = alloca ptr, align 8
  %11 = alloca %"class.std::basic_string_view", align 8
  %12 = alloca %"class.std::__cxx11::basic_string", align 8
  %13 = alloca %"class.std::basic_string_view", align 8
  %14 = alloca %"class.std::basic_string_view", align 8
  %15 = alloca %"struct.nix::ContentAddressWithReferences", align 8
  %16 = alloca ptr, align 8
  %17 = alloca i32, align 4
  store ptr %0, ptr %7, align 8
  %18 = getelementptr inbounds { i64, ptr }, ptr %8, i32 0, i32 0
  store i64 %3, ptr %18, align 8
  %19 = getelementptr inbounds { i64, ptr }, ptr %8, i32 0, i32 1
  store ptr %4, ptr %19, align 8
  store ptr %1, ptr %9, align 8
  store ptr %2, ptr %10, align 8
  %20 = load ptr, ptr %9, align 8
  %21 = load ptr, ptr %10, align 8
  call void @llvm.memcpy.p0.p0.i64(ptr align 8 %13, ptr align 8 %8, i64 16, i1 false)
  call void @llvm.memcpy.p0.p0.i64(ptr align 8 %14, ptr align 8 %5, i64 16, i1 false)
  %22 = getelementptr inbounds { i64, ptr }, ptr %13, i32 0, i32 0
  %23 = load i64, ptr %22, align 8
  %24 = getelementptr inbounds { i64, ptr }, ptr %13, i32 0, i32 1
  %25 = load ptr, ptr %24, align 8
  %26 = getelementptr inbounds { i64, ptr }, ptr %14, i32 0, i32 0
  %27 = load i64, ptr %26, align 8
  %28 = getelementptr inbounds { i64, ptr }, ptr %14, i32 0, i32 1
  %29 = load ptr, ptr %28, align 8
  call void @_ZN3nix14outputPathNameB5cxx11ESt17basic_string_viewIcSt11char_traitsIcEES3_(ptr dead_on_unwind writable sret(%"class.std::__cxx11::basic_string") align 8 %12, i64 %23, ptr %25, i64 %27, ptr %29)
  %30 = call { i64, ptr } @_ZNKSt7__cxx1112basic_stringIcSt11char_traitsIcESaIcEEcvSt17basic_string_viewIcS2_EEv(ptr noundef nonnull align 8 dereferenceable(32) %12) #1
  %31 = getelementptr inbounds { i64, ptr }, ptr %11, i32 0, i32 0
  %32 = extractvalue { i64, ptr } %30, 0
  store i64 %32, ptr %31, align 8
  %33 = getelementptr inbounds { i64, ptr }, ptr %11, i32 0, i32 1
  %34 = extractvalue { i64, ptr } %30, 1
  store ptr %34, ptr %33, align 8
  %35 = getelementptr inbounds %"struct.nix::DerivationOutput::CAFixed", ptr %20, i32 0, i32 0
  call void @_ZN3nix28ContentAddressWithReferences11withoutRefsERKNS_14ContentAddressE(ptr dead_on_unwind writable sret(%"struct.nix::ContentAddressWithReferences") align 8 %15, ptr noundef nonnull align 8 dereferenceable(88) %35) #1
  %36 = getelementptr inbounds { i64, ptr }, ptr %11, i32 0, i32 0
  %37 = load i64, ptr %36, align 8
  %38 = getelementptr inbounds { i64, ptr }, ptr %11, i32 0, i32 1
  %39 = load ptr, ptr %38, align 8
  invoke void @_ZNK3nix14StoreDirConfig25makeFixedOutputPathFromCAESt17basic_string_viewIcSt11char_traitsIcEERKNS_28ContentAddressWithReferencesE(ptr dead_on_unwind writable sret(%"class.nix::StorePath") align 8 %0, ptr noundef nonnull align 8 dereferenceable(344) %21, i64 %37, ptr %39, ptr noundef nonnull align 8 dereferenceable(152) %15)
          to label %40 unwind label %41

40:                                               ; preds = %6
  call void @_ZN3nix28ContentAddressWithReferencesD2Ev(ptr noundef nonnull align 8 dereferenceable(152) %15) #1
  call void @_ZNSt7__cxx1112basic_stringIcSt11char_traitsIcESaIcEED2Ev(ptr noundef nonnull align 8 dereferenceable(32) %12) #1
  ret void

41:                                               ; preds = %6
  %42 = landingpad { ptr, i32 }
          cleanup
  %43 = extractvalue { ptr, i32 } %42, 0
  store ptr %43, ptr %16, align 8
  %44 = extractvalue { ptr, i32 } %42, 1
  store i32 %44, ptr %17, align 4
  call void @_ZN3nix28ContentAddressWithReferencesD2Ev(ptr noundef nonnull align 8 dereferenceable(152) %15) #1
  call void @_ZNSt7__cxx1112basic_stringIcSt11char_traitsIcESaIcEED2Ev(ptr noundef nonnull align 8 dereferenceable(32) %12) #1
  br label %45

45:                                               ; preds = %41
  %46 = load ptr, ptr %16, align 8
  %47 = load i32, ptr %17, align 4
  %48 = insertvalue { ptr, i32 } poison, ptr %46, 0
  %49 = insertvalue { ptr, i32 } %48, i32 %47, 1
  resume { ptr, i32 } %49
}