; Function Attrs: mustprogress uwtable
define void @_ZNK3nix16DerivationOutput7CAFixed4pathERKNS_14StoreDirConfigESt17basic_string_viewIcSt11char_traitsIcEES8_(ptr dead_on_unwind noalias writable sret(%"class.nix::StorePath") align 8 %0, ptr noundef nonnull align 8 dereferenceable(88) %1, ptr noundef nonnull align 8 dereferenceable(344) %2, i64 %3, ptr %4, ptr nocapture noundef readonly byval(%"class.std::basic_string_view") align 8 %5) local_unnamed_addr #4 align 2 personality ptr @__gxx_personality_v0 {
  %7 = alloca %"class.std::__cxx11::basic_string", align 8
  %8 = alloca %"struct.nix::ContentAddressWithReferences", align 8
  %.sroa.0.0.copyload = load i64, ptr %5, align 8
  %.sroa.2.0..sroa_idx = getelementptr inbounds i8, ptr %5, i64 8
  %.sroa.2.0.copyload = load ptr, ptr %.sroa.2.0..sroa_idx, align 8
  call void @_ZN3nix14outputPathNameB5cxx11ESt17basic_string_viewIcSt11char_traitsIcEES3_(ptr dead_on_unwind nonnull writable sret(%"class.std::__cxx11::basic_string") align 8 %7, i64 %3, ptr %4, i64 %.sroa.0.0.copyload, ptr %.sroa.2.0.copyload)
  %9 = load ptr, ptr %7, align 8
  %10 = getelementptr inbounds i8, ptr %7, i64 8
  %11 = load i64, ptr %10, align 8
  call void @_ZN3nix28ContentAddressWithReferences11withoutRefsERKNS_14ContentAddressE(ptr dead_on_unwind nonnull writable sret(%"struct.nix::ContentAddressWithReferences") align 8 %8, ptr noundef nonnull align 8 dereferenceable(88) %1) #26
  invoke void @_ZNK3nix14StoreDirConfig25makeFixedOutputPathFromCAESt17basic_string_viewIcSt11char_traitsIcEERKNS_28ContentAddressWithReferencesE(ptr dead_on_unwind writable sret(%"class.nix::StorePath") align 8 %0, ptr noundef nonnull align 8 dereferenceable(344) %2, i64 %11, ptr %9, ptr noundef nonnull align 8 dereferenceable(152) %8)
          to label %12 unwind label %34

12:                                               ; preds = %6
  %13 = getelementptr inbounds i8, ptr %8, i64 144
  %14 = load i8, ptr %13, align 8
  switch i8 %14, label %22 [
    i8 -1, label %_ZN3nix28ContentAddressWithReferencesD2Ev.exit
    i8 0, label %15
  ]

15:                                               ; preds = %12
  %16 = getelementptr inbounds i8, ptr %8, i64 80
  %17 = getelementptr inbounds i8, ptr %8, i64 96
  %18 = load ptr, ptr %17, align 8
  invoke void @_ZNSt8_Rb_treeIN3nix9StorePathES1_St9_IdentityIS1_ESt4lessIS1_ESaIS1_EE8_M_eraseEPSt13_Rb_tree_nodeIS1_E(ptr noundef nonnull align 8 dereferenceable(48) %16, ptr noundef %18)
          to label %_ZSt10__do_visitIvZNSt8__detail9__variant16_Variant_storageILb0EJN3nix8TextInfoENS3_15FixedOutputInfoEEE8_M_resetEvEUlOT_E_JRSt7variantIJS4_S5_EEEEDcOT0_DpOT1_.exit.i.i.i.i.i.i.i.i.i unwind label %19

19:                                               ; preds = %15
  %20 = landingpad { ptr, i32 }
          catch ptr null
  %21 = extractvalue { ptr, i32 } %20, 0
  call void @__clang_call_terminate(ptr %21) #28
  unreachable

22:                                               ; preds = %12
  %23 = getelementptr inbounds i8, ptr %8, i64 88
  %24 = getelementptr inbounds i8, ptr %8, i64 104
  %25 = load ptr, ptr %24, align 8
  invoke void @_ZNSt8_Rb_treeIN3nix9StorePathES1_St9_IdentityIS1_ESt4lessIS1_ESaIS1_EE8_M_eraseEPSt13_Rb_tree_nodeIS1_E(ptr noundef nonnull align 8 dereferenceable(48) %23, ptr noundef %25)
          to label %_ZSt10__do_visitIvZNSt8__detail9__variant16_Variant_storageILb0EJN3nix8TextInfoENS3_15FixedOutputInfoEEE8_M_resetEvEUlOT_E_JRSt7variantIJS4_S5_EEEEDcOT0_DpOT1_.exit.i.i.i.i.i.i.i.i.i unwind label %26

26:                                               ; preds = %22
  %27 = landingpad { ptr, i32 }
          catch ptr null
  %28 = extractvalue { ptr, i32 } %27, 0
  call void @__clang_call_terminate(ptr %28) #28
  unreachable

_ZSt10__do_visitIvZNSt8__detail9__variant16_Variant_storageILb0EJN3nix8TextInfoENS3_15FixedOutputInfoEEE8_M_resetEvEUlOT_E_JRSt7variantIJS4_S5_EEEEDcOT0_DpOT1_.exit.i.i.i.i.i.i.i.i.i: ; preds = %22, %15
  store i8 -1, ptr %13, align 8
  br label %_ZN3nix28ContentAddressWithReferencesD2Ev.exit

_ZN3nix28ContentAddressWithReferencesD2Ev.exit:   ; preds = %12, %_ZSt10__do_visitIvZNSt8__detail9__variant16_Variant_storageILb0EJN3nix8TextInfoENS3_15FixedOutputInfoEEE8_M_resetEvEUlOT_E_JRSt7variantIJS4_S5_EEEEDcOT0_DpOT1_.exit.i.i.i.i.i.i.i.i.i
  %29 = load ptr, ptr %7, align 8
  %30 = getelementptr inbounds i8, ptr %7, i64 16
  %31 = icmp eq ptr %29, %30
  br i1 %31, label %_ZNKSt7__cxx1112basic_stringIcSt11char_traitsIcESaIcEE11_M_is_localEv.exit.thread.i.i, label %_ZNKSt7__cxx1112basic_stringIcSt11char_traitsIcESaIcEE11_M_is_localEv.exit.i.i

_ZNKSt7__cxx1112basic_stringIcSt11char_traitsIcESaIcEE11_M_is_localEv.exit.thread.i.i: ; preds = %_ZN3nix28ContentAddressWithReferencesD2Ev.exit
  %32 = load i64, ptr %10, align 8
  %33 = icmp ult i64 %32, 16
  call void @llvm.assume(i1 %33)
  br label %_ZNSt7__cxx1112basic_stringIcSt11char_traitsIcESaIcEED2Ev.exit

_ZNKSt7__cxx1112basic_stringIcSt11char_traitsIcESaIcEE11_M_is_localEv.exit.i.i: ; preds = %_ZN3nix28ContentAddressWithReferencesD2Ev.exit
  call void @_ZdlPv(ptr noundef %29) #29
  br label %_ZNSt7__cxx1112basic_stringIcSt11char_traitsIcESaIcEED2Ev.exit

_ZNSt7__cxx1112basic_stringIcSt11char_traitsIcESaIcEED2Ev.exit: ; preds = %_ZNKSt7__cxx1112basic_stringIcSt11char_traitsIcESaIcEE11_M_is_localEv.exit.thread.i.i, %_ZNKSt7__cxx1112basic_stringIcSt11char_traitsIcESaIcEE11_M_is_localEv.exit.i.i
  call void @_ZNSaIcED2Ev(ptr noundef nonnull align 1 dereferenceable(1) %7) #26
  ret void

34:                                               ; preds = %6
  %35 = landingpad { ptr, i32 }
          cleanup
  call void @_ZN3nix28ContentAddressWithReferencesD2Ev(ptr noundef nonnull align 8 dereferenceable(152) %8) #26
  call void @_ZNSt7__cxx1112basic_stringIcSt11char_traitsIcESaIcEED2Ev(ptr noundef nonnull align 8 dereferenceable(32) %7) #26
  resume { ptr, i32 } %35
}